#include <math.h>
#include <stdio.h>
#include <stdlib.h>
#include <string.h>

int main()
{
	int n,i,count1=0,count2=0,num=0,j;
	scanf("%d",&n);
	for(i=3;i<=n-2;i++)
	{
		for(j=2;j<i;j++)
		{
			if(i%j==0)
				count1++;
		}
		for(j=2;j<i+2;j++)
		{
			if((i+2)%j==0)
				count2++;
		}
		if(count1==0&&count2==0)
		{
		printf("%d %d\n",i,(i+2));
		num=num+1;
		}
		count1=0;
		count2=0;
	}
	if(num==0)
		printf("empty");
	return 0;
}